; Function Attrs: nounwind uwtable
define hidden ptr @X509_gmtime_adj(ptr noundef %0, i64 noundef %1) local_unnamed_addr #0 {
  %3 = alloca i64, align 8
  call void @llvm.lifetime.start.p0(i64 8, ptr nonnull %3) #14
  store i64 0, ptr %3, align 8, !tbaa !103
  %4 = call i64 @time(ptr noundef nonnull %3) #14
  %.not18.i.i = icmp eq ptr %0, null
  br i1 %.not18.i.i, label %18, label %5

5:                                                ; preds = %2
  %6 = getelementptr inbounds nuw i8, ptr %0, i64 16
  %7 = load i64, ptr %6, align 8, !tbaa !102
  %8 = and i64 %7, 64
  %.not19.i.i = icmp eq i64 %8, 0
  br i1 %.not19.i.i, label %9, label %18

9:                                                ; preds = %5
  %10 = getelementptr inbounds nuw i8, ptr %0, i64 4
  %11 = load i32, ptr %10, align 4, !tbaa !99
  switch i32 %11, label %18 [
    i32 23, label %12
    i32 24, label %15
  ]

12:                                               ; preds = %9
  %13 = load i64, ptr %3, align 8, !tbaa !103
  %14 = call ptr @ASN1_UTCTIME_adj(ptr noundef nonnull %0, i64 noundef %13, i32 noundef 0, i64 noundef %1) #14
  br label %X509_time_adj.exit

15:                                               ; preds = %9
  %16 = load i64, ptr %3, align 8, !tbaa !103
  %17 = call ptr @ASN1_GENERALIZEDTIME_adj(ptr noundef nonnull %0, i64 noundef %16, i32 noundef 0, i64 noundef %1) #14
  br label %X509_time_adj.exit

18:                                               ; preds = %9, %5, %2
  %19 = load i64, ptr %3, align 8, !tbaa !103
  %20 = call ptr @ASN1_TIME_adj(ptr noundef %0, i64 noundef %19, i32 noundef 0, i64 noundef %1) #14
  br label %X509_time_adj.exit

X509_time_adj.exit:                               ; preds = %12, %15, %18
  %.0.i.i = phi ptr [ %20, %18 ], [ %14, %12 ], [ %17, %15 ]
  call void @llvm.lifetime.end.p0(i64 8, ptr nonnull %3) #14
  ret ptr %.0.i.i
}